; Function Attrs: mustprogress uwtable
define void @utrie2_set32_77(ptr noundef readonly captures(none) %0, i32 noundef %1, i32 noundef %2, ptr noundef captures(none) %3) local_unnamed_addr #0 {
  %5 = load i32, ptr %3, align 4, !tbaa !3
  %6 = icmp slt i32 %5, 1
  br i1 %6, label %7, label %_ZL5set32P9UNewTrie2iajP10UErrorCode.exit

7:                                                ; preds = %4
  %8 = icmp ugt i32 %1, 1114111
  br i1 %8, label %9, label %10

9:                                                ; preds = %7
  store i32 1, ptr %3, align 4, !tbaa !3
  br label %_ZL5set32P9UNewTrie2iajP10UErrorCode.exit

10:                                               ; preds = %7
  %11 = getelementptr inbounds nuw i8, ptr %0, i64 72
  %12 = load ptr, ptr %11, align 8, !tbaa !17
  %13 = icmp eq ptr %12, null
  br i1 %13, label %17, label %14

14:                                               ; preds = %10
  %15 = getelementptr inbounds nuw i8, ptr %12, i64 144172
  %16 = load i8, ptr %15, align 4, !tbaa !25
  %.not.i = icmp eq i8 %16, 0
  br i1 %.not.i, label %18, label %17

17:                                               ; preds = %14, %10
  store i32 30, ptr %3, align 4, !tbaa !3
  br label %_ZL5set32P9UNewTrie2iajP10UErrorCode.exit

18:                                               ; preds = %14
  %19 = tail call fastcc noundef i32 @_ZL12getDataBlockP9UNewTrie2ia(ptr noundef %12, i32 noundef %1, i8 noundef signext 1)
  %20 = icmp slt i32 %19, 0
  br i1 %20, label %21, label %22

21:                                               ; preds = %18
  store i32 7, ptr %3, align 4, !tbaa !3
  br label %_ZL5set32P9UNewTrie2iajP10UErrorCode.exit

22:                                               ; preds = %18
  %23 = getelementptr inbounds nuw i8, ptr %12, i64 144128
  %24 = load ptr, ptr %23, align 8, !tbaa !18
  %25 = and i32 %1, 31
  %26 = add nuw nsw i32 %19, %25
  %27 = zext nneg i32 %26 to i64
  %28 = getelementptr inbounds nuw i32, ptr %24, i64 %27
  store i32 %2, ptr %28, align 4, !tbaa !26
  br label %_ZL5set32P9UNewTrie2iajP10UErrorCode.exit

_ZL5set32P9UNewTrie2iajP10UErrorCode.exit:        ; preds = %22, %21, %17, %4, %9
  ret void
}